; ModuleID = '12/136.c'
source_filename = "12/136.c"
target datalayout = "e-m:e-p270:32:32-p271:32:32-p272:64:64-i64:64-f80:128-n8:16:32:64-S128"
target triple = "x86_64-pc-linux-gnu"

@.str = private unnamed_addr constant [3 x i8] c"%d\00", align 1
@.str.1 = private unnamed_addr constant [4 x i8] c"%d\0A\00", align 1

; Function Attrs: noinline nounwind uwtable
define dso_local void @main() #0 {
  %1 = alloca [100 x [16 x i32]], align 16
  %2 = alloca i32, align 4
  %3 = alloca i32, align 4
  %4 = alloca i32, align 4
  %5 = alloca i32, align 4
  store i32 0, i32* %2, align 4
  br label %6

6:                                                ; preds = %46, %0
  %7 = load i32, i32* %2, align 4
  %8 = sext i32 %7 to i64
  %9 = getelementptr inbounds [100 x [16 x i32]], [100 x [16 x i32]]* %1, i64 0, i64 %8
  %10 = getelementptr inbounds [16 x i32], [16 x i32]* %9, i64 0, i64 0
  %11 = call i32 (i8*, ...) @__isoc99_scanf(i8* getelementptr inbounds ([3 x i8], [3 x i8]* @.str, i64 0, i64 0), i32* %10)
  %12 = load i32, i32* %2, align 4
  %13 = sext i32 %12 to i64
  %14 = getelementptr inbounds [100 x [16 x i32]], [100 x [16 x i32]]* %1, i64 0, i64 %13
  %15 = getelementptr inbounds [16 x i32], [16 x i32]* %14, i64 0, i64 0
  %16 = load i32, i32* %15, align 16
  %17 = icmp eq i32 %16, -1
  br i1 %17, label %18, label %19

18:                                               ; preds = %6
  br label %49

19:                                               ; preds = %6
  store i32 1, i32* %3, align 4
  br label %20

20:                                               ; preds = %41, %19
  %21 = load i32, i32* %3, align 4
  %22 = icmp slt i32 %21, 16
  br i1 %22, label %23, label %44

23:                                               ; preds = %20
  %24 = load i32, i32* %2, align 4
  %25 = sext i32 %24 to i64
  %26 = getelementptr inbounds [100 x [16 x i32]], [100 x [16 x i32]]* %1, i64 0, i64 %25
  %27 = load i32, i32* %3, align 4
  %28 = sext i32 %27 to i64
  %29 = getelementptr inbounds [16 x i32], [16 x i32]* %26, i64 0, i64 %28
  %30 = call i32 (i8*, ...) @__isoc99_scanf(i8* getelementptr inbounds ([3 x i8], [3 x i8]* @.str, i64 0, i64 0), i32* %29)
  %31 = load i32, i32* %2, align 4
  %32 = sext i32 %31 to i64
  %33 = getelementptr inbounds [100 x [16 x i32]], [100 x [16 x i32]]* %1, i64 0, i64 %32
  %34 = load i32, i32* %3, align 4
  %35 = sext i32 %34 to i64
  %36 = getelementptr inbounds [16 x i32], [16 x i32]* %33, i64 0, i64 %35
  %37 = load i32, i32* %36, align 4
  %38 = icmp eq i32 %37, 0
  br i1 %38, label %39, label %40

39:                                               ; preds = %23
  br label %44

40:                                               ; preds = %23
  br label %41

41:                                               ; preds = %40
  %42 = load i32, i32* %3, align 4
  %43 = add nsw i32 %42, 1
  store i32 %43, i32* %3, align 4
  br label %20

44:                                               ; preds = %39, %20
  br label %45

45:                                               ; preds = %44
  br label %46

46:                                               ; preds = %45
  %47 = load i32, i32* %2, align 4
  %48 = add nsw i32 %47, 1
  store i32 %48, i32* %2, align 4
  br label %6

49:                                               ; preds = %18
  store i32 0, i32* %2, align 4
  br label %50

50:                                               ; preds = %146, %49
  %51 = load i32, i32* %2, align 4
  %52 = icmp slt i32 %51, 100
  br i1 %52, label %53, label %149

53:                                               ; preds = %50
  store i32 0, i32* %5, align 4
  %54 = load i32, i32* %2, align 4
  %55 = sext i32 %54 to i64
  %56 = getelementptr inbounds [100 x [16 x i32]], [100 x [16 x i32]]* %1, i64 0, i64 %55
  %57 = getelementptr inbounds [16 x i32], [16 x i32]* %56, i64 0, i64 0
  %58 = load i32, i32* %57, align 16
  %59 = icmp eq i32 %58, -1
  br i1 %59, label %60, label %61

60:                                               ; preds = %53
  br label %149

61:                                               ; preds = %53
  store i32 0, i32* %3, align 4
  br label %62

62:                                               ; preds = %139, %61
  %63 = load i32, i32* %3, align 4
  %64 = icmp slt i32 %63, 16
  br i1 %64, label %65, label %74

65:                                               ; preds = %62
  %66 = load i32, i32* %2, align 4
  %67 = sext i32 %66 to i64
  %68 = getelementptr inbounds [100 x [16 x i32]], [100 x [16 x i32]]* %1, i64 0, i64 %67
  %69 = load i32, i32* %3, align 4
  %70 = sext i32 %69 to i64
  %71 = getelementptr inbounds [16 x i32], [16 x i32]* %68, i64 0, i64 %70
  %72 = load i32, i32* %71, align 4
  %73 = icmp ne i32 %72, 0
  br label %74

74:                                               ; preds = %65, %62
  %75 = phi i1 [ false, %62 ], [ %73, %65 ]
  br i1 %75, label %76, label %142

76:                                               ; preds = %74
  %77 = load i32, i32* %3, align 4
  %78 = add nsw i32 %77, 1
  store i32 %78, i32* %4, align 4
  br label %79

79:                                               ; preds = %135, %76
  %80 = load i32, i32* %4, align 4
  %81 = icmp slt i32 %80, 16
  br i1 %81, label %82, label %91

82:                                               ; preds = %79
  %83 = load i32, i32* %2, align 4
  %84 = sext i32 %83 to i64
  %85 = getelementptr inbounds [100 x [16 x i32]], [100 x [16 x i32]]* %1, i64 0, i64 %84
  %86 = load i32, i32* %4, align 4
  %87 = sext i32 %86 to i64
  %88 = getelementptr inbounds [16 x i32], [16 x i32]* %85, i64 0, i64 %87
  %89 = load i32, i32* %88, align 4
  %90 = icmp ne i32 %89, 0
  br label %91

91:                                               ; preds = %82, %79
  %92 = phi i1 [ false, %79 ], [ %90, %82 ]
  br i1 %92, label %93, label %138

93:                                               ; preds = %91
  %94 = load i32, i32* %2, align 4
  %95 = sext i32 %94 to i64
  %96 = getelementptr inbounds [100 x [16 x i32]], [100 x [16 x i32]]* %1, i64 0, i64 %95
  %97 = load i32, i32* %4, align 4
  %98 = sext i32 %97 to i64
  %99 = getelementptr inbounds [16 x i32], [16 x i32]* %96, i64 0, i64 %98
  %100 = load i32, i32* %99, align 4
  %101 = load i32, i32* %2, align 4
  %102 = sext i32 %101 to i64
  %103 = getelementptr inbounds [100 x [16 x i32]], [100 x [16 x i32]]* %1, i64 0, i64 %102
  %104 = load i32, i32* %3, align 4
  %105 = sext i32 %104 to i64
  %106 = getelementptr inbounds [16 x i32], [16 x i32]* %103, i64 0, i64 %105
  %107 = load i32, i32* %106, align 4
  %108 = mul nsw i32 2, %107
  %109 = icmp eq i32 %100, %108
  br i1 %109, label %110, label %113

110:                                              ; preds = %93
  %111 = load i32, i32* %5, align 4
  %112 = add nsw i32 %111, 1
  store i32 %112, i32* %5, align 4
  br label %134

113:                                              ; preds = %93
  %114 = load i32, i32* %2, align 4
  %115 = sext i32 %114 to i64
  %116 = getelementptr inbounds [100 x [16 x i32]], [100 x [16 x i32]]* %1, i64 0, i64 %115
  %117 = load i32, i32* %3, align 4
  %118 = sext i32 %117 to i64
  %119 = getelementptr inbounds [16 x i32], [16 x i32]* %116, i64 0, i64 %118
  %120 = load i32, i32* %119, align 4
  %121 = load i32, i32* %2, align 4
  %122 = sext i32 %121 to i64
  %123 = getelementptr inbounds [100 x [16 x i32]], [100 x [16 x i32]]* %1, i64 0, i64 %122
  %124 = load i32, i32* %4, align 4
  %125 = sext i32 %124 to i64
  %126 = getelementptr inbounds [16 x i32], [16 x i32]* %123, i64 0, i64 %125
  %127 = load i32, i32* %126, align 4
  %128 = mul nsw i32 2, %127
  %129 = icmp eq i32 %120, %128
  br i1 %129, label %130, label %133

130:                                              ; preds = %113
  %131 = load i32, i32* %5, align 4
  %132 = add nsw i32 %131, 1
  store i32 %132, i32* %5, align 4
  br label %133

133:                                              ; preds = %130, %113
  br label %134

134:                                              ; preds = %133, %110
  br label %135

135:                                              ; preds = %134
  %136 = load i32, i32* %4, align 4
  %137 = add nsw i32 %136, 1
  store i32 %137, i32* %4, align 4
  br label %79

138:                                              ; preds = %91
  br label %139

139:                                              ; preds = %138
  %140 = load i32, i32* %3, align 4
  %141 = add nsw i32 %140, 1
  store i32 %141, i32* %3, align 4
  br label %62

142:                                              ; preds = %74
  br label %143

143:                                              ; preds = %142
  %144 = load i32, i32* %5, align 4
  %145 = call i32 (i8*, ...) @printf(i8* getelementptr inbounds ([4 x i8], [4 x i8]* @.str.1, i64 0, i64 0), i32 %144)
  br label %146

146:                                              ; preds = %143
  %147 = load i32, i32* %2, align 4
  %148 = add nsw i32 %147, 1
  store i32 %148, i32* %2, align 4
  br label %50

149:                                              ; preds = %60, %50
  ret void
}

declare dso_local i32 @__isoc99_scanf(i8*, ...) #1

declare dso_local i32 @printf(i8*, ...) #1


!llvm.module.flags = !{!0}
!llvm.ident = !{!1}

!0 = !{i32 1, !"wchar_size", i32 4}
!1 = !{!"clang version 10.0.0-4ubuntu1 "}
